target datalayout = "e-m:e-p270:32:32-p271:32:32-p272:64:64-i64:64-i128:128-f80:128-n8:16:32:64-S128"
target triple = "x86_64-unknown-linux-gnu"

%"class.node::quic::CID" = type { %"class.node::MemoryRetainer", %struct.ngtcp2_cid, ptr }
%"class.node::MemoryRetainer" = type { ptr }
%struct.ngtcp2_cid = type { i64, [20 x i8] }

; Function Attrs: mustprogress nounwind uwtable
define dso_local noundef i64 @_ZNK4node4quic3CID6lengthEv(ptr noundef nonnull align 8 dereferenceable(48) %this) #4 align 2 {
entry:
  %this.addr = alloca ptr, align 8
  store ptr %this, ptr %this.addr, align 8
  %this1 = load ptr, ptr %this.addr, align 8
  %ptr_ = getelementptr inbounds %"class.node::quic::CID", ptr %this1, i32 0, i32 2
  %0 = load ptr, ptr %ptr_, align 8
  %datalen = getelementptr inbounds %struct.ngtcp2_cid, ptr %0, i32 0, i32 0
  %1 = load i64, ptr %datalen, align 8
  ret i64 %1
}

; Function Attrs: mustprogress nounwind uwtable
define dso_local noundef zeroext i1 @_ZNK4node4quic3CIDeqERKS1_(ptr noundef nonnull align 8 dereferenceable(48) %this, ptr noundef nonnull align 8 dereferenceable(48) %other) #4 align 2 {
entry:
  %retval = alloca i1, align 1
  %this.addr = alloca ptr, align 8
  %other.addr = alloca ptr, align 8
  store ptr %this, ptr %this.addr, align 8
  store ptr %other, ptr %other.addr, align 8
  %this1 = load ptr, ptr %this.addr, align 8
  %0 = load ptr, ptr %other.addr, align 8
  %cmp = icmp eq ptr %this1, %0
  br i1 %cmp, label %if.then, label %lor.lhs.false

lor.lhs.false:                                    ; preds = %entry
  %call = call noundef i64 @_ZNK4node4quic3CID6lengthEv(ptr noundef nonnull align 8 dereferenceable(48) %this1)
  %cmp2 = icmp eq i64 %call, 0
  br i1 %cmp2, label %land.lhs.true, label %if.end

land.lhs.true:                                    ; preds = %lor.lhs.false
  %1 = load ptr, ptr %other.addr, align 8
  %call3 = call noundef i64 @_ZNK4node4quic3CID6lengthEv(ptr noundef nonnull align 8 dereferenceable(48) %1)
  %cmp4 = icmp eq i64 %call3, 0
  br i1 %cmp4, label %if.then, label %if.end

if.then:                                          ; preds = %land.lhs.true, %entry
  store i1 true, ptr %retval, align 1
  br label %return

if.end:                                           ; preds = %land.lhs.true, %lor.lhs.false
  %call5 = call noundef i64 @_ZNK4node4quic3CID6lengthEv(ptr noundef nonnull align 8 dereferenceable(48) %this1)
  %2 = load ptr, ptr %other.addr, align 8
  %call6 = call noundef i64 @_ZNK4node4quic3CID6lengthEv(ptr noundef nonnull align 8 dereferenceable(48) %2)
  %cmp7 = icmp ne i64 %call5, %call6
  br i1 %cmp7, label %if.then8, label %if.end9

if.then8:                                         ; preds = %if.end
  store i1 false, ptr %retval, align 1
  br label %return

if.end9:                                          ; preds = %if.end
  %ptr_ = getelementptr inbounds %"class.node::quic::CID", ptr %this1, i32 0, i32 2
  %3 = load ptr, ptr %ptr_, align 8
  %data = getelementptr inbounds %struct.ngtcp2_cid, ptr %3, i32 0, i32 1
  %arraydecay = getelementptr inbounds [20 x i8], ptr %data, i64 0, i64 0
  %4 = load ptr, ptr %other.addr, align 8
  %ptr_10 = getelementptr inbounds %"class.node::quic::CID", ptr %4, i32 0, i32 2
  %5 = load ptr, ptr %ptr_10, align 8
  %data11 = getelementptr inbounds %struct.ngtcp2_cid, ptr %5, i32 0, i32 1
  %arraydecay12 = getelementptr inbounds [20 x i8], ptr %data11, i64 0, i64 0
  %ptr_13 = getelementptr inbounds %"class.node::quic::CID", ptr %this1, i32 0, i32 2
  %6 = load ptr, ptr %ptr_13, align 8
  %datalen = getelementptr inbounds %struct.ngtcp2_cid, ptr %6, i32 0, i32 0
  %7 = load i64, ptr %datalen, align 8
  %call14 = call i32 @memcmp(ptr noundef %arraydecay, ptr noundef %arraydecay12, i64 noundef %7) #11
  %cmp15 = icmp eq i32 %call14, 0
  store i1 %cmp15, ptr %retval, align 1
  br label %return

return:                                           ; preds = %if.end9, %if.then8, %if.then
  %8 = load i1, ptr %retval, align 1
  ret i1 %8
}