; Function Attrs: mustprogress nofree nounwind willreturn memory(read, inaccessiblemem: none) uwtable
define dso_local noundef zeroext i1 @_ZNK4node4quic3CIDeqERKS1_(ptr noundef nonnull readonly align 8 dereferenceable(48) %this, ptr noundef nonnull readonly align 8 dereferenceable(48) %other) local_unnamed_addr #6 align 2 {
entry:
  %cmp = icmp eq ptr %this, %other
  br i1 %cmp, label %return, label %lor.lhs.false

lor.lhs.false:                                    ; preds = %entry
  %ptr_.i = getelementptr inbounds i8, ptr %this, i64 40
  %0 = load ptr, ptr %ptr_.i, align 8
  %1 = load i64, ptr %0, align 8
  %cmp2 = icmp eq i64 %1, 0
  %ptr_.i4 = getelementptr inbounds i8, ptr %other, i64 40
  %2 = load ptr, ptr %ptr_.i4, align 8
  %3 = load i64, ptr %2, align 8
  %cmp4 = icmp eq i64 %3, 0
  %or.cond = select i1 %cmp2, i1 %cmp4, i1 false
  br i1 %or.cond, label %return, label %if.end

if.end:                                           ; preds = %lor.lhs.false
  %cmp7.not = icmp eq i64 %1, %3
  br i1 %cmp7.not, label %if.end9, label %return

if.end9:                                          ; preds = %if.end
  %data = getelementptr inbounds i8, ptr %0, i64 8
  %data11 = getelementptr inbounds i8, ptr %2, i64 8
  %bcmp = tail call i32 @bcmp(ptr nonnull %data, ptr nonnull %data11, i64 %1)
  %cmp15 = icmp eq i32 %bcmp, 0
  br label %return

return:                                           ; preds = %lor.lhs.false, %if.end, %entry, %if.end9
  %retval.0 = phi i1 [ %cmp15, %if.end9 ], [ true, %entry ], [ false, %if.end ], [ true, %lor.lhs.false ]
  ret i1 %retval.0
}